target datalayout = "e-m:e-p270:32:32-p271:32:32-p272:64:64-i64:64-i128:128-f80:128-n8:16:32:64-S128"
target triple = "x86_64-pc-linux-gnu"

%struct.Aig_Man_t_ = type { ptr, ptr, ptr, ptr, ptr, ptr, ptr, %struct.Aig_Obj_t_, i32, i32, i32, i32, i32, i32, [7 x i32], i32, ptr, i32, ptr, i32, ptr, i32, i32, i32, ptr, i32, i32, i32, i32, i32, ptr, ptr, i32, ptr, ptr, i32, ptr, ptr, i32, i32, i32, ptr, ptr, ptr, ptr, ptr, ptr, ptr, ptr, ptr, ptr, ptr, ptr, ptr, ptr, i32, ptr, ptr, ptr, ptr, i32, i64, i64, i64, ptr, ptr }
%struct.Aig_Obj_t_ = type { %union.anon, ptr, ptr, i64, i32, i32, %union.anon.0 }
%union.anon = type { ptr }
%union.anon.0 = type { ptr }

@Aig_ManDump.Counter = internal global i32 0, align 4
@.str.29 = private unnamed_addr constant [17 x i8] c"aigbug\\%03d.blif\00", align 1
@.str.30 = private unnamed_addr constant [60 x i8] c"Intermediate AIG with %d nodes was written into file \22%s\22.\0A\00", align 1

; Function Attrs: inlinehint nounwind uwtable
define internal i32 @Aig_ManNodeNum(ptr noundef %0) #4 {
  %2 = alloca ptr, align 8
  store ptr %0, ptr %2, align 8, !tbaa !3
  %3 = load ptr, ptr %2, align 8, !tbaa !3
  %4 = getelementptr inbounds nuw %struct.Aig_Man_t_, ptr %3, i32 0, i32 14
  %5 = getelementptr inbounds [7 x i32], ptr %4, i64 0, i64 5
  %6 = load i32, ptr %5, align 4, !tbaa !22
  %7 = load ptr, ptr %2, align 8, !tbaa !3
  %8 = getelementptr inbounds nuw %struct.Aig_Man_t_, ptr %7, i32 0, i32 14
  %9 = getelementptr inbounds [7 x i32], ptr %8, i64 0, i64 6
  %10 = load i32, ptr %9, align 8, !tbaa !22
  %11 = add nsw i32 %6, %10
  ret i32 %11
}

; Function Attrs: nounwind uwtable
define void @Aig_ManDump(ptr noundef %0) #0 {
  %2 = alloca ptr, align 8
  %3 = alloca [200 x i8], align 16
  store ptr %0, ptr %2, align 8, !tbaa !3
  call void @llvm.lifetime.start.p0(i64 200, ptr %3) #10
  %4 = getelementptr inbounds [200 x i8], ptr %3, i64 0, i64 0
  %5 = load i32, ptr @Aig_ManDump.Counter, align 4, !tbaa !22
  %6 = add nsw i32 %5, 1
  store i32 %6, ptr @Aig_ManDump.Counter, align 4, !tbaa !22
  %7 = call i32 (ptr, ptr, ...) @sprintf(ptr noundef %4, ptr noundef @.str.29, i32 noundef %6) #10
  %8 = load ptr, ptr %2, align 8, !tbaa !3
  %9 = getelementptr inbounds [200 x i8], ptr %3, i64 0, i64 0
  call void @Aig_ManDumpBlif(ptr noundef %8, ptr noundef %9, ptr noundef null, ptr noundef null)
  %10 = load ptr, ptr %2, align 8, !tbaa !3
  %11 = call i32 @Aig_ManNodeNum(ptr noundef %10)
  %12 = getelementptr inbounds [200 x i8], ptr %3, i64 0, i64 0
  %13 = call i32 (ptr, ...) @printf(ptr noundef @.str.30, i32 noundef %11, ptr noundef %12)
  call void @llvm.lifetime.end.p0(i64 200, ptr %3) #10
  ret void
}