; Function Attrs: nounwind uwtable
define void @Aig_ManDump(ptr noundef %0) local_unnamed_addr #1 {
  %2 = alloca [200 x i8], align 16
  call void @llvm.lifetime.start.p0(i64 200, ptr nonnull %2) #25
  %3 = load i32, ptr @Aig_ManDump.Counter, align 4, !tbaa !30
  %4 = add nsw i32 %3, 1
  store i32 %4, ptr @Aig_ManDump.Counter, align 4, !tbaa !30
  %5 = call i32 (ptr, ptr, ...) @sprintf(ptr noundef nonnull dereferenceable(1) %2, ptr noundef nonnull dereferenceable(1) @.str.29, i32 noundef %4) #25
  call void @Aig_ManDumpBlif(ptr noundef %0, ptr noundef nonnull %2, ptr noundef null, ptr noundef null)
  %6 = getelementptr i8, ptr %0, i64 148
  %.val = load i32, ptr %6, align 4, !tbaa !30
  %7 = getelementptr i8, ptr %0, i64 152
  %.val2 = load i32, ptr %7, align 8, !tbaa !30
  %8 = add nsw i32 %.val2, %.val
  %9 = call i32 (ptr, ...) @printf(ptr noundef nonnull dereferenceable(1) @.str.30, i32 noundef %8, ptr noundef nonnull %2)
  call void @llvm.lifetime.end.p0(i64 200, ptr nonnull %2) #25
  ret void
}